(dp0
S'Madison'
p1
(dp2
S'digit7attempted'
p3
I1
sS'digit8correct'
p4
I1
sS'digit6attempted'
p5
I1
sS'digit0attempted'
p6
I3
sS'digit6correct'
p7
I1
sS'digit4correct'
p8
I1
sS'digit1correct'
p9
I1
sS'maxLevel'
p10
I2
sS'digit8attempted'
p11
I3
sS'digit2attempted'
p12
I1
sS'digit5correct'
p13
I1
sS'digit1attempted'
p14
I2
sS'digit3correct'
p15
I1
sS'digit4attempted'
p16
I1
sS'digit9correct'
p17
I1
sS'digit5attempted'
p18
I1
sS'digit7correct'
p19
I1
sS'digit9attempted'
p20
I6
sS'digit0correct'
p21
I2
sS'digit3attempted'
p22
I1
sS'digit2correct'
p23
I1
sS'previousMaxLevel'
p24
I1
ssS'Jupiter'
p25
(dp26
S'digit7attempted'
p27
I1
sS'digit8correct'
p28
I1
sS'digit6attempted'
p29
I1
sS'digit0attempted'
p30
I1
sS'digit6correct'
p31
I1
sS'digit8attempted'
p32
I1
sS'digit1correct'
p33
I1
sS'maxLevel'
p34
I1
sS'digit4correct'
p35
I1
sS'digit2attempted'
p36
I2
sS'digit5correct'
p37
I1
sS'digit1attempted'
p38
I1
sS'digit3correct'
p39
I1
sS'digit4attempted'
p40
I1
sS'digit9correct'
p41
I0
sS'digit5attempted'
p42
I1
sS'digit7correct'
p43
I1
sS'digit9attempted'
p44
I1
sS'digit0correct'
p45
I1
sS'digit3attempted'
p46
I1
sS'digit2correct'
p47
I1
sS'previousMaxLevel'
p48
I1
ss.